target datalayout = "e-m:e-p270:32:32-p271:32:32-p272:64:64-i64:64-i128:128-f80:128-n8:16:32:64-S128"
target triple = "x86_64-unknown-linux-gnu"

@.str = private unnamed_addr constant [35 x i8] c"../qemu/hw/core/machine-qmp-cmds.c\00", align 1
@.str.1 = private unnamed_addr constant [8 x i8] c"machine\00", align 1
@__func__.qmp_set_numa_node = private unnamed_addr constant [18 x i8] c"qmp_set_numa_node\00", align 1
@.str.4 = private unnamed_addr constant [66 x i8] c"The command is permitted only before the machine has been created\00", align 1
@.str.15 = private unnamed_addr constant [98 x i8] c"/home/dtcxzyw/WorkSpace/Projects/compilers/llvm-opt-benchmark/bench/qemu/qemu/include/hw/boards.h\00", align 1
@__func__.MACHINE = private unnamed_addr constant [8 x i8] c"MACHINE\00", align 1

; Function Attrs: nounwind sspstrong uwtable
define internal ptr @MACHINE(ptr noundef %obj) #0 {
entry:
  %obj.addr = alloca ptr, align 8
  store ptr %obj, ptr %obj.addr, align 8
  %0 = load ptr, ptr %obj.addr, align 8
  %call = call ptr @object_dynamic_cast_assert(ptr noundef %0, ptr noundef @.str.1, ptr noundef @.str.15, i32 noundef 23, ptr noundef @__func__.MACHINE)
  ret ptr %call
}

; Function Attrs: nounwind sspstrong uwtable
define dso_local void @qmp_set_numa_node(ptr noundef %cmd, ptr noundef %errp) #0 {
entry:
  %cmd.addr = alloca ptr, align 8
  %errp.addr = alloca ptr, align 8
  store ptr %cmd, ptr %cmd.addr, align 8
  store ptr %errp, ptr %errp.addr, align 8
  %call = call zeroext i1 @phase_check(i32 noundef 3)
  br i1 %call, label %if.then, label %if.end

if.then:                                          ; preds = %entry
  %0 = load ptr, ptr %errp.addr, align 8
  call void (ptr, ptr, i32, ptr, ptr, ...) @error_setg_internal(ptr noundef %0, ptr noundef @.str, i32 noundef 142, ptr noundef @__func__.qmp_set_numa_node, ptr noundef @.str.4)
  br label %return

if.end:                                           ; preds = %entry
  %call1 = call ptr @qdev_get_machine()
  %call2 = call ptr @MACHINE(ptr noundef %call1)
  %1 = load ptr, ptr %cmd.addr, align 8
  %2 = load ptr, ptr %errp.addr, align 8
  call void @set_numa_options(ptr noundef %call2, ptr noundef %1, ptr noundef %2)
  br label %return

return:                                           ; preds = %if.end, %if.then
  ret void
}