; Function Attrs: nounwind sspstrong uwtable
define dso_local void @qmp_set_numa_node(ptr noundef %cmd, ptr noundef %errp) local_unnamed_addr #0 {
entry:
  %call = tail call zeroext i1 @phase_check(i32 noundef 3) #7
  br i1 %call, label %if.then, label %if.end

if.then:                                          ; preds = %entry
  tail call void (ptr, ptr, i32, ptr, ptr, ...) @error_setg_internal(ptr noundef %errp, ptr noundef nonnull @.str, i32 noundef 142, ptr noundef nonnull @__func__.qmp_set_numa_node, ptr noundef nonnull @.str.4) #7
  br label %return

if.end:                                           ; preds = %entry
  %call1 = tail call ptr @qdev_get_machine() #7
  %call.i = tail call ptr @object_dynamic_cast_assert(ptr noundef %call1, ptr noundef nonnull @.str.1, ptr noundef nonnull @.str.15, i32 noundef 23, ptr noundef nonnull @__func__.MACHINE) #7
  tail call void @set_numa_options(ptr noundef %call.i, ptr noundef %cmd, ptr noundef %errp) #7
  br label %return

return:                                           ; preds = %if.end, %if.then
  ret void
}